; Function Attrs: nounwind uwtable
define noalias nonnull ptr @l_Lean_getLibDir___lambda__1(ptr noundef %0, ptr noundef readnone captures(none) %1, ptr noundef %2) local_unnamed_addr #0 {
  %4 = load ptr, ptr @l_Lean_getLibDir___lambda__1___closed__1, align 8, !tbaa !4
  %5 = tail call ptr @l_System_FilePath_join(ptr noundef %0, ptr noundef %4) #4
  %6 = load ptr, ptr @l_Array_forIn_x27Unsafe_loop___at_Lean_forEachModuleInDir___spec__2___rarg___lambda__5___closed__1, align 8, !tbaa !4
  %7 = tail call ptr @l_System_FilePath_join(ptr noundef %5, ptr noundef %6) #4
  tail call void @lean_inc_heartbeat() #4
  %8 = tail call noalias ptr @mi_malloc_small(i64 noundef 24) #4
  %9 = icmp eq ptr %8, null
  br i1 %9, label %10, label %lean_alloc_ctor.exit

10:                                               ; preds = %3
  tail call void @lean_internal_panic_out_of_memory() #5
  unreachable

lean_alloc_ctor.exit:                             ; preds = %3
  %11 = getelementptr inbounds nuw i8, ptr %8, i64 4
  store i32 1, ptr %8, align 4, !tbaa !10
  store i32 131096, ptr %11, align 4
  %12 = getelementptr inbounds nuw i8, ptr %8, i64 8
  store ptr %7, ptr %12, align 8, !tbaa !4
  %13 = getelementptr inbounds nuw i8, ptr %8, i64 16
  store ptr %2, ptr %13, align 8, !tbaa !4
  ret ptr %8
}